; Function Attrs: mustprogress nofree norecurse nosync nounwind willreturn memory(read, inaccessiblemem: none) uwtable
define internal range(i32 0, 2) i32 @clean_module_constant(ptr noundef readonly captures(none) %0, ptr noundef readonly captures(none) %1) #4 {
  %3 = load ptr, ptr %0, align 8, !tbaa !4
  %4 = load i32, ptr %1, align 4, !tbaa !16
  %5 = getelementptr inbounds nuw i8, ptr %3, i64 12
  %6 = load i32, ptr %5, align 4, !tbaa !4
  %7 = lshr i32 %6, 8
  %8 = icmp eq i32 %7, %4
  %. = zext i1 %8 to i32
  ret i32 %.
}